; Function Attrs: nofree norecurse nosync nounwind memory(readwrite, inaccessiblemem: none) uwtable
define i32 @ff_vvc_alf_ctb_filter_alt_idx(ptr noundef readonly captures(none) %0, i32 noundef %1, i32 noundef %2) local_unnamed_addr #3 {
  %4 = add i32 %2, -1
  %5 = icmp sgt i32 %2, 1
  br i1 %5, label %.lr.ph, label %.critedge

.lr.ph:                                           ; preds = %3
  %6 = getelementptr inbounds nuw i8, ptr %0, i64 4580560
  %7 = load ptr, ptr %6, align 16, !tbaa !67
  %8 = getelementptr inbounds nuw i8, ptr %7, i64 2672
  %9 = getelementptr inbounds nuw i8, ptr %7, i64 400
  %10 = sext i32 %1 to i64
  %11 = getelementptr %struct.VVCCabacState, ptr %9, i64 %10
  %12 = getelementptr i8, ptr %11, i64 90
  %13 = getelementptr inbounds nuw i8, ptr %7, i64 2676
  %14 = getelementptr i8, ptr %11, i64 92
  %15 = getelementptr inbounds nuw i8, ptr %7, i64 2688
  %16 = getelementptr inbounds nuw i8, ptr %7, i64 2696
  %17 = getelementptr i8, ptr %11, i64 94
  %18 = getelementptr i8, ptr %11, i64 95
  %.promoted = load i16, ptr %14, align 2, !tbaa !58
  %.promoted10 = load i16, ptr %12, align 2, !tbaa !58
  %.pre = load i32, ptr %13, align 4, !tbaa !100
  %.pre11 = load i32, ptr %8, align 8, !tbaa !70
  br label %19

19:                                               ; preds = %.lr.ph, %93
  %20 = phi i32 [ %.pre11, %.lr.ph ], [ %73, %93 ]
  %21 = phi i32 [ %.pre, %.lr.ph ], [ %45, %93 ]
  %22 = phi i16 [ %.promoted10, %.lr.ph ], [ %84, %93 ]
  %23 = phi i16 [ %.promoted, %.lr.ph ], [ %92, %93 ]
  %.08 = phi i32 [ 0, %.lr.ph ], [ %94, %93 ]
  %24 = ashr i32 %21, 5
  %25 = zext i16 %23 to i32
  %26 = zext i16 %22 to i32
  %27 = shl nuw nsw i32 %26, 4
  %28 = add nuw nsw i32 %27, %25
  %.not.i = icmp samesign ult i32 %28, 16384
  %29 = sub nsw i32 32767, %28
  %30 = select i1 %.not.i, i32 %28, i32 %29
  %31 = ashr i32 %30, 9
  %32 = mul nsw i32 %31, %24
  %33 = ashr i32 %32, 1
  %34 = add nsw i32 %33, 4
  %35 = sub nsw i32 %21, %34
  %36 = shl i32 %35, 17
  %37 = icmp slt i32 %36, %20
  %38 = select i1 %37, i32 %36, i32 0
  %39 = sub nsw i32 %20, %38
  %40 = select i1 %37, i32 %34, i32 %35
  %41 = sext i32 %40 to i64
  %42 = getelementptr inbounds i8, ptr @ff_h264_cabac_tables, i64 %41
  %43 = load i8, ptr %42, align 1, !tbaa !97
  %44 = zext i8 %43 to i32
  %45 = shl i32 %40, %44
  store i32 %45, ptr %13, align 4, !tbaa !100
  %46 = shl i32 %39, %44
  store i32 %46, ptr %8, align 8, !tbaa !70
  %47 = and i32 %46, 65535
  %.not42.i = icmp eq i32 %47, 0
  br i1 %.not42.i, label %48, label %vvc_get_cabac.exit

48:                                               ; preds = %19
  %49 = add nsw i32 %46, -1
  %50 = xor i32 %49, %46
  %51 = lshr i32 %50, 15
  %52 = zext nneg i32 %51 to i64
  %53 = getelementptr inbounds nuw i8, ptr @ff_h264_cabac_tables, i64 %52
  %54 = load i8, ptr %53, align 1, !tbaa !97
  %55 = zext i8 %54 to i32
  %56 = sub nsw i32 7, %55
  %57 = load ptr, ptr %15, align 8, !tbaa !68
  %58 = load i8, ptr %57, align 1, !tbaa !97
  %59 = zext i8 %58 to i32
  %60 = shl nuw nsw i32 %59, 9
  %61 = getelementptr inbounds nuw i8, ptr %57, i64 1
  %62 = load i8, ptr %61, align 1, !tbaa !97
  %63 = zext i8 %62 to i32
  %64 = shl nuw nsw i32 %63, 1
  %65 = or disjoint i32 %64, %60
  %66 = add nsw i32 %65, -65535
  %67 = shl nsw i32 %66, %56
  %68 = add i32 %67, %46
  store i32 %68, ptr %8, align 8, !tbaa !70
  %69 = load ptr, ptr %16, align 8, !tbaa !71
  %70 = icmp ult ptr %57, %69
  br i1 %70, label %71, label %vvc_get_cabac.exit

71:                                               ; preds = %48
  %72 = getelementptr inbounds nuw i8, ptr %57, i64 2
  store ptr %72, ptr %15, align 8, !tbaa !68
  br label %vvc_get_cabac.exit

vvc_get_cabac.exit:                               ; preds = %19, %48, %71
  %73 = phi i32 [ %46, %19 ], [ %68, %48 ], [ %68, %71 ]
  %74 = lshr i32 %28, 14
  %75 = zext i1 %37 to i32
  %76 = xor i32 %74, %75
  %77 = load i8, ptr %17, align 2, !tbaa !97
  %78 = zext i8 %77 to i32
  %79 = lshr i32 %26, %78
  %80 = sub nsw i32 %26, %79
  %81 = mul nuw nsw i32 %76, 1023
  %82 = lshr i32 %81, %78
  %83 = add nsw i32 %80, %82
  %84 = trunc i32 %83 to i16
  store i16 %84, ptr %12, align 2, !tbaa !58
  %85 = load i8, ptr %18, align 1, !tbaa !97
  %86 = zext i8 %85 to i32
  %87 = lshr i32 %25, %86
  %88 = sub nsw i32 %25, %87
  %89 = mul nuw nsw i32 %76, 16383
  %90 = lshr i32 %89, %86
  %91 = add nsw i32 %88, %90
  %92 = trunc i32 %91 to i16
  store i16 %92, ptr %14, align 2, !tbaa !58
  %.not = icmp eq i32 %74, %75
  br i1 %.not, label %.critedge, label %93

93:                                               ; preds = %vvc_get_cabac.exit
  %94 = add nuw nsw i32 %.08, 1
  %exitcond.not = icmp eq i32 %94, %4
  br i1 %exitcond.not, label %.critedge, label %19, !llvm.loop !109

.critedge:                                        ; preds = %vvc_get_cabac.exit, %93, %3
  %.0.lcssa = phi i32 [ 0, %3 ], [ %4, %93 ], [ %.08, %vvc_get_cabac.exit ]
  ret i32 %.0.lcssa
}